target datalayout = "e-m:e-p270:32:32-p271:32:32-p272:64:64-i64:64-i128:128-f80:128-n8:16:32:64-S128"
target triple = "x86_64-pc-linux-gnu"

%class.obj_ref = type { ptr, ptr }
%class.ast = type { i32, i32, i32, i32 }
%"class.datatype::param_size::size.base" = type <{ ptr, i32 }>
%"struct.datatype::param_size::sparam" = type { %"class.datatype::param_size::size.base", %class.obj_ref }
%class.obj_map.63 = type { %class.core_hashtable.64 }
%class.core_hashtable.64 = type <{ ptr, i32, i32, i32, [4 x i8] }>
%"struct.obj_map<sort, datatype::param_size::size *>::key_data" = type { ptr, ptr }
%"class.obj_map<sort, datatype::param_size::size *>::obj_map_entry" = type { %"struct.obj_map<sort, datatype::param_size::size *>::key_data" }

; Function Attrs: mustprogress nounwind uwtable
define linkonce_odr hidden noundef zeroext i1 @_ZNK7obj_mapI4sortPN8datatype10param_size4sizeEE8key_dataeqERKS6_(ptr noundef nonnull align 8 dereferenceable(16) %0, ptr noundef nonnull align 8 dereferenceable(16) %1) #5 comdat align 2 {
  %3 = alloca ptr, align 8
  %4 = alloca ptr, align 8
  store ptr %0, ptr %3, align 8, !tbaa !952
  store ptr %1, ptr %4, align 8, !tbaa !952
  %5 = load ptr, ptr %3, align 8
  %6 = getelementptr inbounds nuw %"struct.obj_map<sort, datatype::param_size::size *>::key_data", ptr %5, i32 0, i32 0
  %7 = load ptr, ptr %6, align 8, !tbaa !956
  %8 = load ptr, ptr %4, align 8, !tbaa !952
  %9 = getelementptr inbounds nuw %"struct.obj_map<sort, datatype::param_size::size *>::key_data", ptr %8, i32 0, i32 0
  %10 = load ptr, ptr %9, align 8, !tbaa !956
  %11 = icmp eq ptr %7, %10
  ret i1 %11
}

; Function Attrs: mustprogress nounwind uwtable
define linkonce_odr hidden noundef i32 @_ZNK3ast4hashEv(ptr noundef nonnull align 4 dereferenceable(16) %0) #5 comdat align 2 {
  %2 = alloca ptr, align 8
  store ptr %0, ptr %2, align 8, !tbaa !83
  %3 = load ptr, ptr %2, align 8
  %4 = getelementptr inbounds nuw %class.ast, ptr %3, i32 0, i32 3
  %5 = load i32, ptr %4, align 4, !tbaa !812
  ret i32 %5
}

; Function Attrs: mustprogress uwtable
define linkonce_odr hidden noundef zeroext i1 @_ZNK10default_eqIN7obj_mapI4sortPN8datatype10param_size4sizeEE8key_dataEEclERKS7_SA_(ptr noundef nonnull align 1 dereferenceable(1) %0, ptr noundef nonnull align 8 dereferenceable(16) %1, ptr noundef nonnull align 8 dereferenceable(16) %2) #4 comdat align 2 {
  %4 = alloca ptr, align 8
  %5 = alloca ptr, align 8
  %6 = alloca ptr, align 8
  store ptr %0, ptr %4, align 8, !tbaa !963
  store ptr %1, ptr %5, align 8, !tbaa !952
  store ptr %2, ptr %6, align 8, !tbaa !952
  %7 = load ptr, ptr %5, align 8, !tbaa !952
  %8 = load ptr, ptr %6, align 8, !tbaa !952
  %9 = call noundef zeroext i1 @_ZNK7obj_mapI4sortPN8datatype10param_size4sizeEE8key_dataeqERKS6_(ptr noundef nonnull align 8 dereferenceable(16) %7, ptr noundef nonnull align 8 dereferenceable(16) %8)
  ret i1 %9
}

; Function Attrs: mustprogress nounwind uwtable
define linkonce_odr hidden noundef i32 @_ZNK7obj_mapI4sortPN8datatype10param_size4sizeEE8key_data4hashEv(ptr noundef nonnull align 8 dereferenceable(16) %0) #5 comdat align 2 {
  %2 = alloca ptr, align 8
  store ptr %0, ptr %2, align 8, !tbaa !952
  %3 = load ptr, ptr %2, align 8
  %4 = getelementptr inbounds nuw %"struct.obj_map<sort, datatype::param_size::size *>::key_data", ptr %3, i32 0, i32 0
  %5 = load ptr, ptr %4, align 8, !tbaa !956
  %6 = call noundef i32 @_ZNK3ast4hashEv(ptr noundef nonnull align 4 dereferenceable(16) %5)
  ret i32 %6
}

; Function Attrs: mustprogress uwtable
define linkonce_odr hidden noundef i32 @_ZNK8obj_hashIN7obj_mapI4sortPN8datatype10param_size4sizeEE8key_dataEEclERKS7_(ptr noundef nonnull align 1 dereferenceable(1) %0, ptr noundef nonnull align 8 dereferenceable(16) %1) #4 comdat align 2 {
  %3 = alloca ptr, align 8
  %4 = alloca ptr, align 8
  store ptr %0, ptr %3, align 8, !tbaa !961
  store ptr %1, ptr %4, align 8, !tbaa !952
  %5 = load ptr, ptr %4, align 8, !tbaa !952
  %6 = call noundef i32 @_ZNK7obj_mapI4sortPN8datatype10param_size4sizeEE8key_data4hashEv(ptr noundef nonnull align 8 dereferenceable(16) %5)
  ret i32 %6
}

; Function Attrs: mustprogress nounwind uwtable
define linkonce_odr hidden noundef zeroext i1 @_ZNK7obj_mapI4sortPN8datatype10param_size4sizeEE13obj_map_entry7is_freeEv(ptr noundef nonnull align 8 dereferenceable(16) %0) #5 comdat align 2 {
  %2 = alloca ptr, align 8
  store ptr %0, ptr %2, align 8, !tbaa !737
  %3 = load ptr, ptr %2, align 8
  %4 = getelementptr inbounds nuw %"class.obj_map<sort, datatype::param_size::size *>::obj_map_entry", ptr %3, i32 0, i32 0
  %5 = getelementptr inbounds nuw %"struct.obj_map<sort, datatype::param_size::size *>::key_data", ptr %4, i32 0, i32 0
  %6 = load ptr, ptr %5, align 8, !tbaa !959
  %7 = icmp eq ptr %6, null
  ret i1 %7
}

; Function Attrs: mustprogress uwtable
define linkonce_odr hidden noundef zeroext i1 @_ZNK14core_hashtableIN7obj_mapI4sortPN8datatype10param_size4sizeEE13obj_map_entryE8obj_hashINS6_8key_dataEE10default_eqIS9_EE6equalsERKS9_SF_(ptr noundef nonnull align 8 dereferenceable(20) %0, ptr noundef nonnull align 8 dereferenceable(16) %1, ptr noundef nonnull align 8 dereferenceable(16) %2) #4 comdat align 2 {
  %4 = alloca ptr, align 8
  %5 = alloca ptr, align 8
  %6 = alloca ptr, align 8
  store ptr %0, ptr %4, align 8, !tbaa !731
  store ptr %1, ptr %5, align 8, !tbaa !952
  store ptr %2, ptr %6, align 8, !tbaa !952
  %7 = load ptr, ptr %4, align 8
  %8 = load ptr, ptr %5, align 8, !tbaa !952
  %9 = load ptr, ptr %6, align 8, !tbaa !952
  %10 = call noundef zeroext i1 @_ZNK10default_eqIN7obj_mapI4sortPN8datatype10param_size4sizeEE8key_dataEEclERKS7_SA_(ptr noundef nonnull align 1 dereferenceable(1) %7, ptr noundef nonnull align 8 dereferenceable(16) %8, ptr noundef nonnull align 8 dereferenceable(16) %9)
  ret i1 %10
}

; Function Attrs: mustprogress nounwind uwtable
define linkonce_odr hidden noundef i32 @_ZNK7obj_mapI4sortPN8datatype10param_size4sizeEE13obj_map_entry8get_hashEv(ptr noundef nonnull align 8 dereferenceable(16) %0) #5 comdat align 2 {
  %2 = alloca ptr, align 8
  store ptr %0, ptr %2, align 8, !tbaa !737
  %3 = load ptr, ptr %2, align 8
  %4 = getelementptr inbounds nuw %"class.obj_map<sort, datatype::param_size::size *>::obj_map_entry", ptr %3, i32 0, i32 0
  %5 = call noundef i32 @_ZNK7obj_mapI4sortPN8datatype10param_size4sizeEE8key_data4hashEv(ptr noundef nonnull align 8 dereferenceable(16) %4)
  ret i32 %5
}

; Function Attrs: mustprogress nounwind uwtable
define linkonce_odr hidden noundef zeroext i1 @_ZNK7obj_mapI4sortPN8datatype10param_size4sizeEE13obj_map_entry7is_usedEv(ptr noundef nonnull align 8 dereferenceable(16) %0) #5 comdat align 2 {
  %2 = alloca ptr, align 8
  store ptr %0, ptr %2, align 8, !tbaa !737
  %3 = load ptr, ptr %2, align 8
  %4 = getelementptr inbounds nuw %"class.obj_map<sort, datatype::param_size::size *>::obj_map_entry", ptr %3, i32 0, i32 0
  %5 = getelementptr inbounds nuw %"struct.obj_map<sort, datatype::param_size::size *>::key_data", ptr %4, i32 0, i32 0
  %6 = load ptr, ptr %5, align 8, !tbaa !959
  %7 = icmp ne ptr %6, null
  br i1 %7, label %8, label %13

8:                                                ; preds = %1
  %9 = getelementptr inbounds nuw %"class.obj_map<sort, datatype::param_size::size *>::obj_map_entry", ptr %3, i32 0, i32 0
  %10 = getelementptr inbounds nuw %"struct.obj_map<sort, datatype::param_size::size *>::key_data", ptr %9, i32 0, i32 0
  %11 = load ptr, ptr %10, align 8, !tbaa !959
  %12 = icmp ne ptr %11, inttoptr (i64 1 to ptr)
  br label %13

13:                                               ; preds = %8, %1
  %14 = phi i1 [ false, %1 ], [ %12, %8 ]
  ret i1 %14
}

; Function Attrs: mustprogress uwtable
define linkonce_odr hidden noundef i32 @_ZNK14core_hashtableIN7obj_mapI4sortPN8datatype10param_size4sizeEE13obj_map_entryE8obj_hashINS6_8key_dataEE10default_eqIS9_EE8get_hashERKS9_(ptr noundef nonnull align 8 dereferenceable(20) %0, ptr noundef nonnull align 8 dereferenceable(16) %1) #4 comdat align 2 {
  %3 = alloca ptr, align 8
  %4 = alloca ptr, align 8
  store ptr %0, ptr %3, align 8, !tbaa !731
  store ptr %1, ptr %4, align 8, !tbaa !952
  %5 = load ptr, ptr %3, align 8
  %6 = load ptr, ptr %4, align 8, !tbaa !952
  %7 = call noundef i32 @_ZNK8obj_hashIN7obj_mapI4sortPN8datatype10param_size4sizeEE8key_dataEEclERKS7_(ptr noundef nonnull align 1 dereferenceable(1) %5, ptr noundef nonnull align 8 dereferenceable(16) %6)
  ret i32 %7
}

; Function Attrs: mustprogress uwtable
define linkonce_odr hidden noundef ptr @_ZNK14core_hashtableIN7obj_mapI4sortPN8datatype10param_size4sizeEE13obj_map_entryE8obj_hashINS6_8key_dataEE10default_eqIS9_EE9find_coreERKS9_(ptr noundef nonnull align 8 dereferenceable(20) %0, ptr noundef nonnull align 8 dereferenceable(16) %1) #4 comdat align 2 {
  %3 = alloca ptr, align 8
  %4 = alloca ptr, align 8
  %5 = alloca ptr, align 8
  %6 = alloca i32, align 4
  %7 = alloca i32, align 4
  %8 = alloca i32, align 4
  %9 = alloca ptr, align 8
  %10 = alloca ptr, align 8
  %11 = alloca ptr, align 8
  %12 = alloca i32, align 4
  store ptr %0, ptr %4, align 8, !tbaa !731
  store ptr %1, ptr %5, align 8, !tbaa !952
  %13 = load ptr, ptr %4, align 8
  call void @llvm.lifetime.start.p0(i64 4, ptr %6) #3
  %14 = load ptr, ptr %5, align 8, !tbaa !952
  %15 = call noundef i32 @_ZNK14core_hashtableIN7obj_mapI4sortPN8datatype10param_size4sizeEE13obj_map_entryE8obj_hashINS6_8key_dataEE10default_eqIS9_EE8get_hashERKS9_(ptr noundef nonnull align 8 dereferenceable(20) %13, ptr noundef nonnull align 8 dereferenceable(16) %14)
  store i32 %15, ptr %6, align 4, !tbaa !22
  call void @llvm.lifetime.start.p0(i64 4, ptr %7) #3
  %16 = getelementptr inbounds nuw %class.core_hashtable.64, ptr %13, i32 0, i32 1
  %17 = load i32, ptr %16, align 8, !tbaa !736
  %18 = sub i32 %17, 1
  store i32 %18, ptr %7, align 4, !tbaa !22
  call void @llvm.lifetime.start.p0(i64 4, ptr %8) #3
  %19 = load i32, ptr %6, align 4, !tbaa !22
  %20 = load i32, ptr %7, align 4, !tbaa !22
  %21 = and i32 %19, %20
  store i32 %21, ptr %8, align 4, !tbaa !22
  call void @llvm.lifetime.start.p0(i64 8, ptr %9) #3
  %22 = getelementptr inbounds nuw %class.core_hashtable.64, ptr %13, i32 0, i32 0
  %23 = load ptr, ptr %22, align 8, !tbaa !733
  %24 = load i32, ptr %8, align 4, !tbaa !22
  %25 = zext i32 %24 to i64
  %26 = getelementptr inbounds nuw %"class.obj_map<sort, datatype::param_size::size *>::obj_map_entry", ptr %23, i64 %25
  store ptr %26, ptr %9, align 8, !tbaa !737
  call void @llvm.lifetime.start.p0(i64 8, ptr %10) #3
  %27 = getelementptr inbounds nuw %class.core_hashtable.64, ptr %13, i32 0, i32 0
  %28 = load ptr, ptr %27, align 8, !tbaa !733
  %29 = getelementptr inbounds nuw %class.core_hashtable.64, ptr %13, i32 0, i32 1
  %30 = load i32, ptr %29, align 8, !tbaa !736
  %31 = zext i32 %30 to i64
  %32 = getelementptr inbounds nuw %"class.obj_map<sort, datatype::param_size::size *>::obj_map_entry", ptr %28, i64 %31
  store ptr %32, ptr %10, align 8, !tbaa !737
  call void @llvm.lifetime.start.p0(i64 8, ptr %11) #3
  %33 = load ptr, ptr %9, align 8, !tbaa !737
  store ptr %33, ptr %11, align 8, !tbaa !737
  br label %34

34:                                               ; preds = %61, %2
  %35 = load ptr, ptr %11, align 8, !tbaa !737
  %36 = load ptr, ptr %10, align 8, !tbaa !737
  %37 = icmp ne ptr %35, %36
  br i1 %37, label %38, label %64

38:                                               ; preds = %34
  %39 = load ptr, ptr %11, align 8, !tbaa !737
  %40 = call noundef zeroext i1 @_ZNK7obj_mapI4sortPN8datatype10param_size4sizeEE13obj_map_entry7is_usedEv(ptr noundef nonnull align 8 dereferenceable(16) %39)
  br i1 %40, label %41, label %54

41:                                               ; preds = %38
  %42 = load ptr, ptr %11, align 8, !tbaa !737
  %43 = call noundef i32 @_ZNK7obj_mapI4sortPN8datatype10param_size4sizeEE13obj_map_entry8get_hashEv(ptr noundef nonnull align 8 dereferenceable(16) %42)
  %44 = load i32, ptr %6, align 4, !tbaa !22
  %45 = icmp eq i32 %43, %44
  br i1 %45, label %46, label %53

46:                                               ; preds = %41
  %47 = load ptr, ptr %11, align 8, !tbaa !737
  %48 = call noundef nonnull align 8 dereferenceable(16) ptr @_ZN7obj_mapI4sortPN8datatype10param_size4sizeEE13obj_map_entry8get_dataEv(ptr noundef nonnull align 8 dereferenceable(16) %47)
  %49 = load ptr, ptr %5, align 8, !tbaa !952
  %50 = call noundef zeroext i1 @_ZNK14core_hashtableIN7obj_mapI4sortPN8datatype10param_size4sizeEE13obj_map_entryE8obj_hashINS6_8key_dataEE10default_eqIS9_EE6equalsERKS9_SF_(ptr noundef nonnull align 8 dereferenceable(20) %13, ptr noundef nonnull align 8 dereferenceable(16) %48, ptr noundef nonnull align 8 dereferenceable(16) %49)
  br i1 %50, label %51, label %53

51:                                               ; preds = %46
  %52 = load ptr, ptr %11, align 8, !tbaa !737
  store ptr %52, ptr %3, align 8
  store i32 1, ptr %12, align 4
  br label %98

53:                                               ; preds = %46, %41
  br label %60

54:                                               ; preds = %38
  %55 = load ptr, ptr %11, align 8, !tbaa !737
  %56 = call noundef zeroext i1 @_ZNK7obj_mapI4sortPN8datatype10param_size4sizeEE13obj_map_entry7is_freeEv(ptr noundef nonnull align 8 dereferenceable(16) %55)
  br i1 %56, label %57, label %58

57:                                               ; preds = %54
  store ptr null, ptr %3, align 8
  store i32 1, ptr %12, align 4
  br label %98

58:                                               ; preds = %54
  br label %59

59:                                               ; preds = %58
  br label %60

60:                                               ; preds = %59, %53
  br label %61

61:                                               ; preds = %60
  %62 = load ptr, ptr %11, align 8, !tbaa !737
  %63 = getelementptr inbounds nuw %"class.obj_map<sort, datatype::param_size::size *>::obj_map_entry", ptr %62, i32 1
  store ptr %63, ptr %11, align 8, !tbaa !737
  br label %34, !llvm.loop !954

64:                                               ; preds = %34
  %65 = getelementptr inbounds nuw %class.core_hashtable.64, ptr %13, i32 0, i32 0
  %66 = load ptr, ptr %65, align 8, !tbaa !733
  store ptr %66, ptr %11, align 8, !tbaa !737
  br label %67

67:                                               ; preds = %94, %64
  %68 = load ptr, ptr %11, align 8, !tbaa !737
  %69 = load ptr, ptr %9, align 8, !tbaa !737
  %70 = icmp ne ptr %68, %69
  br i1 %70, label %71, label %97

71:                                               ; preds = %67
  %72 = load ptr, ptr %11, align 8, !tbaa !737
  %73 = call noundef zeroext i1 @_ZNK7obj_mapI4sortPN8datatype10param_size4sizeEE13obj_map_entry7is_usedEv(ptr noundef nonnull align 8 dereferenceable(16) %72)
  br i1 %73, label %74, label %87

74:                                               ; preds = %71
  %75 = load ptr, ptr %11, align 8, !tbaa !737
  %76 = call noundef i32 @_ZNK7obj_mapI4sortPN8datatype10param_size4sizeEE13obj_map_entry8get_hashEv(ptr noundef nonnull align 8 dereferenceable(16) %75)
  %77 = load i32, ptr %6, align 4, !tbaa !22
  %78 = icmp eq i32 %76, %77
  br i1 %78, label %79, label %86

79:                                               ; preds = %74
  %80 = load ptr, ptr %11, align 8, !tbaa !737
  %81 = call noundef nonnull align 8 dereferenceable(16) ptr @_ZN7obj_mapI4sortPN8datatype10param_size4sizeEE13obj_map_entry8get_dataEv(ptr noundef nonnull align 8 dereferenceable(16) %80)
  %82 = load ptr, ptr %5, align 8, !tbaa !952
  %83 = call noundef zeroext i1 @_ZNK14core_hashtableIN7obj_mapI4sortPN8datatype10param_size4sizeEE13obj_map_entryE8obj_hashINS6_8key_dataEE10default_eqIS9_EE6equalsERKS9_SF_(ptr noundef nonnull align 8 dereferenceable(20) %13, ptr noundef nonnull align 8 dereferenceable(16) %81, ptr noundef nonnull align 8 dereferenceable(16) %82)
  br i1 %83, label %84, label %86

84:                                               ; preds = %79
  %85 = load ptr, ptr %11, align 8, !tbaa !737
  store ptr %85, ptr %3, align 8
  store i32 1, ptr %12, align 4
  br label %98

86:                                               ; preds = %79, %74
  br label %93

87:                                               ; preds = %71
  %88 = load ptr, ptr %11, align 8, !tbaa !737
  %89 = call noundef zeroext i1 @_ZNK7obj_mapI4sortPN8datatype10param_size4sizeEE13obj_map_entry7is_freeEv(ptr noundef nonnull align 8 dereferenceable(16) %88)
  br i1 %89, label %90, label %91

90:                                               ; preds = %87
  store ptr null, ptr %3, align 8
  store i32 1, ptr %12, align 4
  br label %98

91:                                               ; preds = %87
  br label %92

92:                                               ; preds = %91
  br label %93

93:                                               ; preds = %92, %86
  br label %94

94:                                               ; preds = %93
  %95 = load ptr, ptr %11, align 8, !tbaa !737
  %96 = getelementptr inbounds nuw %"class.obj_map<sort, datatype::param_size::size *>::obj_map_entry", ptr %95, i32 1
  store ptr %96, ptr %11, align 8, !tbaa !737
  br label %67, !llvm.loop !955

97:                                               ; preds = %67
  store ptr null, ptr %3, align 8
  store i32 1, ptr %12, align 4
  br label %98

98:                                               ; preds = %97, %90, %84, %57, %51
  call void @llvm.lifetime.end.p0(i64 8, ptr %11) #3
  call void @llvm.lifetime.end.p0(i64 8, ptr %10) #3
  call void @llvm.lifetime.end.p0(i64 8, ptr %9) #3
  call void @llvm.lifetime.end.p0(i64 4, ptr %8) #3
  call void @llvm.lifetime.end.p0(i64 4, ptr %7) #3
  call void @llvm.lifetime.end.p0(i64 4, ptr %6) #3
  %99 = load ptr, ptr %3, align 8
  ret ptr %99
}

; Function Attrs: mustprogress nounwind uwtable
define linkonce_odr hidden void @_ZN7obj_mapI4sortPN8datatype10param_size4sizeEE8key_dataC2EPS0_(ptr noundef nonnull align 8 dereferenceable(16) %0, ptr noundef %1) unnamed_addr #5 comdat align 2 {
  %3 = alloca ptr, align 8
  %4 = alloca ptr, align 8
  store ptr %0, ptr %3, align 8, !tbaa !952
  store ptr %1, ptr %4, align 8, !tbaa !23
  %5 = load ptr, ptr %3, align 8
  %6 = getelementptr inbounds nuw %"struct.obj_map<sort, datatype::param_size::size *>::key_data", ptr %5, i32 0, i32 0
  %7 = load ptr, ptr %4, align 8, !tbaa !23
  store ptr %7, ptr %6, align 8, !tbaa !956
  %8 = getelementptr inbounds nuw %"struct.obj_map<sort, datatype::param_size::size *>::key_data", ptr %5, i32 0, i32 1
  store ptr null, ptr %8, align 8, !tbaa !958
  ret void
}

; Function Attrs: mustprogress nounwind uwtable
define linkonce_odr hidden noundef nonnull align 8 dereferenceable(16) ptr @_ZN7obj_mapI4sortPN8datatype10param_size4sizeEE13obj_map_entry8get_dataEv(ptr noundef nonnull align 8 dereferenceable(16) %0) #5 comdat align 2 {
  %2 = alloca ptr, align 8
  store ptr %0, ptr %2, align 8, !tbaa !737
  %3 = load ptr, ptr %2, align 8
  %4 = getelementptr inbounds nuw %"class.obj_map<sort, datatype::param_size::size *>::obj_map_entry", ptr %3, i32 0, i32 0
  ret ptr %4
}

; Function Attrs: mustprogress uwtable
define linkonce_odr hidden noundef ptr @_ZNK7obj_mapI4sortPN8datatype10param_size4sizeEE9find_coreEPS0_(ptr noundef nonnull align 8 dereferenceable(24) %0, ptr noundef %1) #4 comdat align 2 {
  %3 = alloca ptr, align 8
  %4 = alloca ptr, align 8
  %5 = alloca %"struct.obj_map<sort, datatype::param_size::size *>::key_data", align 8
  store ptr %0, ptr %3, align 8, !tbaa !158
  store ptr %1, ptr %4, align 8, !tbaa !23
  %6 = load ptr, ptr %3, align 8
  %7 = getelementptr inbounds nuw %class.obj_map.63, ptr %6, i32 0, i32 0
  call void @llvm.lifetime.start.p0(i64 16, ptr %5) #3
  %8 = load ptr, ptr %4, align 8, !tbaa !23
  call void @_ZN7obj_mapI4sortPN8datatype10param_size4sizeEE8key_dataC2EPS0_(ptr noundef nonnull align 8 dereferenceable(16) %5, ptr noundef %8)
  %9 = call noundef ptr @_ZNK14core_hashtableIN7obj_mapI4sortPN8datatype10param_size4sizeEE13obj_map_entryE8obj_hashINS6_8key_dataEE10default_eqIS9_EE9find_coreERKS9_(ptr noundef nonnull align 8 dereferenceable(20) %7, ptr noundef nonnull align 8 dereferenceable(16) %5)
  call void @llvm.lifetime.end.p0(i64 16, ptr %5) #3
  ret ptr %9
}

; Function Attrs: mustprogress uwtable
define linkonce_odr hidden noundef nonnull align 8 dereferenceable(8) ptr @_ZN7obj_mapI4sortPN8datatype10param_size4sizeEE4findEPS0_(ptr noundef nonnull align 8 dereferenceable(24) %0, ptr noundef %1) #4 comdat align 2 {
  %3 = alloca ptr, align 8
  %4 = alloca ptr, align 8
  %5 = alloca ptr, align 8
  store ptr %0, ptr %3, align 8, !tbaa !158
  store ptr %1, ptr %4, align 8, !tbaa !23
  %6 = load ptr, ptr %3, align 8
  call void @llvm.lifetime.start.p0(i64 8, ptr %5) #3
  %7 = load ptr, ptr %4, align 8, !tbaa !23
  %8 = call noundef ptr @_ZNK7obj_mapI4sortPN8datatype10param_size4sizeEE9find_coreEPS0_(ptr noundef nonnull align 8 dereferenceable(24) %6, ptr noundef %7)
  store ptr %8, ptr %5, align 8, !tbaa !737
  %9 = load ptr, ptr %5, align 8, !tbaa !737
  %10 = call noundef nonnull align 8 dereferenceable(16) ptr @_ZN7obj_mapI4sortPN8datatype10param_size4sizeEE13obj_map_entry8get_dataEv(ptr noundef nonnull align 8 dereferenceable(16) %9)
  %11 = getelementptr inbounds nuw %"struct.obj_map<sort, datatype::param_size::size *>::key_data", ptr %10, i32 0, i32 1
  call void @llvm.lifetime.end.p0(i64 8, ptr %5) #3
  ret ptr %11
}

; Function Attrs: mustprogress uwtable
define linkonce_odr hidden noundef nonnull align 8 dereferenceable(8) ptr @_ZN7obj_mapI4sortPN8datatype10param_size4sizeEEixEPS0_(ptr noundef nonnull align 8 dereferenceable(24) %0, ptr noundef %1) #4 comdat align 2 {
  %3 = alloca ptr, align 8
  %4 = alloca ptr, align 8
  store ptr %0, ptr %3, align 8, !tbaa !158
  store ptr %1, ptr %4, align 8, !tbaa !23
  %5 = load ptr, ptr %3, align 8
  %6 = load ptr, ptr %4, align 8, !tbaa !23
  %7 = call noundef nonnull align 8 dereferenceable(8) ptr @_ZN7obj_mapI4sortPN8datatype10param_size4sizeEE4findEPS0_(ptr noundef nonnull align 8 dereferenceable(24) %5, ptr noundef %6)
  ret ptr %7
}

; Function Attrs: mustprogress nounwind uwtable
define linkonce_odr hidden noundef ptr @_ZNK7obj_refI4sort11ast_managerEcvPS0_Ev(ptr noundef nonnull align 8 dereferenceable(16) %0) #5 comdat align 2 {
  %2 = alloca ptr, align 8
  store ptr %0, ptr %2, align 8, !tbaa !19
  %3 = load ptr, ptr %2, align 8
  %4 = getelementptr inbounds nuw %class.obj_ref, ptr %3, i32 0, i32 0
  %5 = load ptr, ptr %4, align 8, !tbaa !21
  ret ptr %5
}

; Function Attrs: mustprogress uwtable
define hidden noundef ptr @_ZN8datatype10param_size6sparam5substER7obj_mapI4sortPNS0_4sizeEE(ptr noundef nonnull align 8 dereferenceable(32) %0, ptr noundef nonnull align 8 dereferenceable(24) %1) unnamed_addr #4 align 2 {
  %3 = alloca ptr, align 8
  %4 = alloca ptr, align 8
  store ptr %0, ptr %3, align 8, !tbaa !119
  store ptr %1, ptr %4, align 8, !tbaa !158
  %5 = load ptr, ptr %3, align 8
  %6 = load ptr, ptr %4, align 8, !tbaa !158
  %7 = getelementptr inbounds nuw %"struct.datatype::param_size::sparam", ptr %5, i32 0, i32 1
  %8 = call noundef ptr @_ZNK7obj_refI4sort11ast_managerEcvPS0_Ev(ptr noundef nonnull align 8 dereferenceable(16) %7)
  %9 = call noundef nonnull align 8 dereferenceable(8) ptr @_ZN7obj_mapI4sortPN8datatype10param_size4sizeEEixEPS0_(ptr noundef nonnull align 8 dereferenceable(24) %6, ptr noundef %8)
  %10 = load ptr, ptr %9, align 8, !tbaa !105
  ret ptr %10
}