; Function Attrs: mustprogress nofree norecurse nosync nounwind memory(read, inaccessiblemem: write) uwtable
define hidden noundef ptr @_ZN8datatype10param_size6sparam5substER7obj_mapI4sortPNS0_4sizeEE(ptr noundef nonnull readonly align 8 captures(none) dereferenceable(32) %0, ptr noundef nonnull readonly align 8 captures(none) dereferenceable(24) %1) unnamed_addr #13 align 2 {
  %3 = getelementptr inbounds nuw i8, ptr %0, i64 16
  %4 = load ptr, ptr %3, align 8, !tbaa !3
  %5 = getelementptr inbounds nuw i8, ptr %4, i64 12
  %6 = load i32, ptr %5, align 4, !tbaa !134
  %7 = getelementptr inbounds nuw i8, ptr %1, i64 8
  %8 = load i32, ptr %7, align 8, !tbaa !135
  %9 = add i32 %8, -1
  %10 = and i32 %9, %6
  %11 = load ptr, ptr %1, align 8, !tbaa !138
  %12 = zext i32 %10 to i64
  %13 = getelementptr inbounds nuw %"class.obj_map<sort, datatype::param_size::size *>::obj_map_entry", ptr %11, i64 %12
  %14 = zext i32 %8 to i64
  %15 = getelementptr inbounds nuw %"class.obj_map<sort, datatype::param_size::size *>::obj_map_entry", ptr %11, i64 %14
  %.not35.i.i.i.i = icmp eq i32 %10, %8
  br i1 %.not35.i.i.i.i, label %.preheader.i.i.i.i, label %.lr.ph.i.i.i.i

.preheader.i.i.i.i:                               ; preds = %22, %2
  %.not2737.i.i.i.i = icmp ne i32 %10, 0
  br label %.lr.ph39.i.i.i.i

.lr.ph.i.i.i.i:                                   ; preds = %2, %22
  %.036.i.i.i.i = phi ptr [ %23, %22 ], [ %13, %2 ]
  %16 = load ptr, ptr %.036.i.i.i.i, align 8, !tbaa !139
  %cond.i.i = icmp eq ptr %16, inttoptr (i64 1 to ptr)
  br i1 %cond.i.i, label %22, label %17

17:                                               ; preds = %.lr.ph.i.i.i.i
  %18 = getelementptr inbounds nuw i8, ptr %16, i64 12
  %19 = load i32, ptr %18, align 4, !tbaa !134
  %20 = icmp eq i32 %19, %6
  %21 = icmp eq ptr %16, %4
  %or.cond.i.i.i.i = and i1 %21, %20
  br i1 %or.cond.i.i.i.i, label %_ZN7obj_mapI4sortPN8datatype10param_size4sizeEEixEPS0_.exit, label %22

22:                                               ; preds = %17, %.lr.ph.i.i.i.i
  %23 = getelementptr inbounds nuw i8, ptr %.036.i.i.i.i, i64 16
  %.not.i.i.i.i = icmp eq ptr %23, %15
  br i1 %.not.i.i.i.i, label %.preheader.i.i.i.i, label %.lr.ph.i.i.i.i, !llvm.loop !142

.lr.ph39.i.i.i.i:                                 ; preds = %30, %.preheader.i.i.i.i
  %.not27.i.i.sink.i.i = phi i1 [ %.not27.i.i.i.i, %30 ], [ %.not2737.i.i.i.i, %.preheader.i.i.i.i ]
  %.138.i.i.i.i = phi ptr [ %31, %30 ], [ %11, %.preheader.i.i.i.i ]
  tail call void @llvm.assume(i1 %.not27.i.i.sink.i.i)
  %24 = load ptr, ptr %.138.i.i.i.i, align 8, !tbaa !139
  %cond4.i.i = icmp eq ptr %24, inttoptr (i64 1 to ptr)
  br i1 %cond4.i.i, label %30, label %25

25:                                               ; preds = %.lr.ph39.i.i.i.i
  %26 = getelementptr inbounds nuw i8, ptr %24, i64 12
  %27 = load i32, ptr %26, align 4, !tbaa !134
  %28 = icmp eq i32 %27, %6
  %29 = icmp eq ptr %24, %4
  %or.cond31.i.i.i.i = and i1 %29, %28
  br i1 %or.cond31.i.i.i.i, label %_ZN7obj_mapI4sortPN8datatype10param_size4sizeEEixEPS0_.exit, label %30

30:                                               ; preds = %25, %.lr.ph39.i.i.i.i
  %31 = getelementptr inbounds nuw i8, ptr %.138.i.i.i.i, i64 16
  %.not27.i.i.i.i = icmp ne ptr %31, %13
  br label %.lr.ph39.i.i.i.i

_ZN7obj_mapI4sortPN8datatype10param_size4sizeEEixEPS0_.exit: ; preds = %17, %25
  %.026.i.i.i.i = phi ptr [ %.138.i.i.i.i, %25 ], [ %.036.i.i.i.i, %17 ]
  %32 = getelementptr inbounds nuw i8, ptr %.026.i.i.i.i, i64 8
  %33 = load ptr, ptr %32, align 8, !tbaa !115
  ret ptr %33
}